; Function Attrs: mustprogress uwtable
define void @_ZN9ns16550_t16update_interruptEv(ptr nocapture noundef nonnull align 8 dereferenceable(128) %0) local_unnamed_addr #3 align 2 personality ptr @__gxx_personality_v0 {
  %2 = getelementptr inbounds i8, ptr %0, i64 117
  %3 = load i8, ptr %2, align 1
  %4 = and i8 %3, 2
  %.not = icmp eq i8 %4, 0
  br i1 %.not, label %34, label %5

5:                                                ; preds = %1
  %6 = and i8 %3, -3
  store i8 %6, ptr %2, align 1
  %7 = getelementptr inbounds i8, ptr %0, i64 80
  %8 = getelementptr inbounds i8, ptr %0, i64 48
  %9 = load ptr, ptr %7, align 8
  %10 = load ptr, ptr %8, align 8
  %11 = icmp eq ptr %9, %10
  br i1 %11, label %._crit_edge, label %.lr.ph

.lr.ph:                                           ; preds = %5
  %12 = getelementptr inbounds i8, ptr %0, i64 64
  %13 = getelementptr inbounds i8, ptr %0, i64 56
  %14 = getelementptr inbounds i8, ptr %0, i64 72
  %.pre = load ptr, ptr %12, align 8
  br label %15

15:                                               ; preds = %.lr.ph, %_ZNSt5queueIhSt5dequeIhSaIhEEE3popEv.exit
  %16 = phi ptr [ %9, %.lr.ph ], [ %28, %_ZNSt5queueIhSt5dequeIhSaIhEEE3popEv.exit ]
  %17 = phi ptr [ %.pre, %.lr.ph ], [ %29, %_ZNSt5queueIhSt5dequeIhSaIhEEE3popEv.exit ]
  %18 = phi ptr [ %10, %.lr.ph ], [ %storemerge.i.i, %_ZNSt5queueIhSt5dequeIhSaIhEEE3popEv.exit ]
  %19 = getelementptr inbounds i8, ptr %17, i64 -1
  %.not.i.i = icmp eq ptr %18, %19
  br i1 %.not.i.i, label %22, label %20

20:                                               ; preds = %15
  %21 = getelementptr inbounds i8, ptr %18, i64 1
  br label %_ZNSt5queueIhSt5dequeIhSaIhEEE3popEv.exit

22:                                               ; preds = %15
  %23 = load ptr, ptr %13, align 8
  tail call void @_ZdlPv(ptr noundef %23) #18
  %24 = load ptr, ptr %14, align 8
  %25 = getelementptr inbounds i8, ptr %24, i64 8
  store ptr %25, ptr %14, align 8
  %26 = load ptr, ptr %25, align 8
  store ptr %26, ptr %13, align 8
  %27 = getelementptr inbounds i8, ptr %26, i64 512
  store ptr %27, ptr %12, align 8
  %.pre15 = load ptr, ptr %7, align 8
  br label %_ZNSt5queueIhSt5dequeIhSaIhEEE3popEv.exit

_ZNSt5queueIhSt5dequeIhSaIhEEE3popEv.exit:        ; preds = %20, %22
  %28 = phi ptr [ %16, %20 ], [ %.pre15, %22 ]
  %29 = phi ptr [ %17, %20 ], [ %27, %22 ]
  %storemerge.i.i = phi ptr [ %21, %20 ], [ %26, %22 ]
  store ptr %storemerge.i.i, ptr %8, align 8
  %30 = icmp eq ptr %28, %storemerge.i.i
  br i1 %30, label %._crit_edge.loopexit, label %15, !llvm.loop !4

._crit_edge.loopexit:                             ; preds = %_ZNSt5queueIhSt5dequeIhSaIhEEE3popEv.exit
  %.pre16.pre = load i8, ptr %2, align 1
  br label %._crit_edge

._crit_edge:                                      ; preds = %._crit_edge.loopexit, %5
  %.pre16 = phi i8 [ %.pre16.pre, %._crit_edge.loopexit ], [ %6, %5 ]
  %31 = getelementptr inbounds i8, ptr %0, i64 119
  %32 = load i8, ptr %31, align 1
  %33 = and i8 %32, -2
  store i8 %33, ptr %31, align 1
  br label %34

34:                                               ; preds = %._crit_edge, %1
  %35 = phi i8 [ %.pre16, %._crit_edge ], [ %3, %1 ]
  %36 = and i8 %35, 4
  %.not4 = icmp eq i8 %36, 0
  br i1 %.not4, label %._crit_edge17, label %37

._crit_edge17:                                    ; preds = %34
  %.phi.trans.insert = getelementptr inbounds i8, ptr %0, i64 119
  %.pre18 = load i8, ptr %.phi.trans.insert, align 1
  br label %42

37:                                               ; preds = %34
  %38 = and i8 %35, -5
  store i8 %38, ptr %2, align 1
  %39 = getelementptr inbounds i8, ptr %0, i64 119
  %40 = load i8, ptr %39, align 1
  %41 = or i8 %40, 96
  store i8 %41, ptr %39, align 1
  br label %42

42:                                               ; preds = %._crit_edge17, %37
  %43 = phi i8 [ %.pre18, %._crit_edge17 ], [ %41, %37 ]
  %44 = getelementptr inbounds i8, ptr %0, i64 115
  %45 = load i8, ptr %44, align 1
  %46 = and i8 %45, 1
  %.not5 = icmp eq i8 %46, 0
  %47 = getelementptr inbounds i8, ptr %0, i64 119
  %48 = shl i8 %43, 2
  %spec.select = and i8 %48, 4
  %.0 = select i1 %.not5, i8 0, i8 %spec.select
  %49 = and i8 %45, 2
  %.not7 = icmp eq i8 %49, 0
  br i1 %.not7, label %select.unfold, label %50

50:                                               ; preds = %42
  %51 = and i8 %43, 64
  %.not8 = icmp eq i8 %51, 0
  %52 = or disjoint i8 %.0, 2
  br i1 %.not8, label %select.unfold, label %.thread

select.unfold:                                    ; preds = %50, %42
  %.not9 = icmp eq i8 %.0, 0
  br i1 %.not9, label %53, label %.thread

53:                                               ; preds = %select.unfold
  %54 = getelementptr inbounds i8, ptr %0, i64 114
  store i8 1, ptr %54, align 2
  %55 = getelementptr inbounds i8, ptr %0, i64 8
  %56 = load ptr, ptr %55, align 8
  %57 = getelementptr inbounds i8, ptr %0, i64 16
  %58 = load i32, ptr %57, align 8
  %59 = load ptr, ptr %56, align 8
  %60 = load ptr, ptr %59, align 8
  tail call void %60(ptr noundef nonnull align 8 dereferenceable(8) %56, i32 noundef %58, i32 noundef 0)
  br label %68

.thread:                                          ; preds = %50, %select.unfold
  %.114 = phi i8 [ %spec.select, %select.unfold ], [ %52, %50 ]
  %61 = getelementptr inbounds i8, ptr %0, i64 114
  store i8 %.114, ptr %61, align 2
  %62 = getelementptr inbounds i8, ptr %0, i64 8
  %63 = load ptr, ptr %62, align 8
  %64 = getelementptr inbounds i8, ptr %0, i64 16
  %65 = load i32, ptr %64, align 8
  %66 = load ptr, ptr %63, align 8
  %67 = load ptr, ptr %66, align 8
  tail call void %67(ptr noundef nonnull align 8 dereferenceable(8) %63, i32 noundef %65, i32 noundef 1)
  br label %68

68:                                               ; preds = %.thread, %53
  %69 = load i8, ptr %44, align 1
  %70 = and i8 %69, 2
  %.not10 = icmp eq i8 %70, 0
  br i1 %.not10, label %71, label %74

71:                                               ; preds = %68
  %72 = load i8, ptr %47, align 1
  %73 = or i8 %72, 96
  store i8 %73, ptr %47, align 1
  br label %74

74:                                               ; preds = %71, %68
  ret void
}